target datalayout = "e-m:e-p270:32:32-p271:32:32-p272:64:64-i64:64-i128:128-f80:128-n8:16:32:64-S128"
target triple = "x86_64-unknown-linux-gnu"

%"class.cvc5::internal::TypeNode" = type { ptr }
%"class.cvc5::internal::expr::NodeValue" = type { i64, i16, i32, [0 x ptr] }
%"class.cvc5::internal::NodeBuilder" = type <{ %"class.cvc5::internal::expr::NodeValue", [10 x ptr], ptr, ptr, i32, [4 x i8] }>

; Function Attrs: mustprogress uwtable
define hidden void @_ZN4cvc58internal11NodeManager6mkSortEv(ptr noalias sret(%"class.cvc5::internal::TypeNode") align 8 %agg.result, ptr noundef nonnull align 8 dereferenceable(3360) %this) #4 align 2 personality ptr @__gxx_personality_v0 {
entry:
  %result.ptr = alloca ptr, align 8
  %this.addr = alloca ptr, align 8
  %nb = alloca %"class.cvc5::internal::NodeBuilder", align 8
  %exn.slot = alloca ptr, align 8
  %ehselector.slot = alloca i32, align 4
  store ptr %agg.result, ptr %result.ptr, align 8
  store ptr %this, ptr %this.addr, align 8
  %this1 = load ptr, ptr %this.addr, align 8
  call void @_ZN4cvc58internal11NodeBuilderC1EPNS0_11NodeManagerENS0_4kind6Kind_tE(ptr noundef nonnull align 8 dereferenceable(116) %nb, ptr noundef %this1, i32 noundef 1)
  invoke void @_ZN4cvc58internal11NodeBuilder17constructTypeNodeEv(ptr sret(%"class.cvc5::internal::TypeNode") align 8 %agg.result, ptr noundef nonnull align 8 dereferenceable(116) %nb)
          to label %invoke.cont unwind label %lpad

invoke.cont:                                      ; preds = %entry
  call void @_ZN4cvc58internal11NodeBuilderD1Ev(ptr noundef nonnull align 8 dereferenceable(116) %nb) #3
  ret void

lpad:                                             ; preds = %entry
  %0 = landingpad { ptr, i32 }
          cleanup
  %1 = extractvalue { ptr, i32 } %0, 0
  store ptr %1, ptr %exn.slot, align 8
  %2 = extractvalue { ptr, i32 } %0, 1
  store i32 %2, ptr %ehselector.slot, align 4
  call void @_ZN4cvc58internal11NodeBuilderD1Ev(ptr noundef nonnull align 8 dereferenceable(116) %nb) #3
  br label %eh.resume

eh.resume:                                        ; preds = %lpad
  %exn = load ptr, ptr %exn.slot, align 8
  %sel = load i32, ptr %ehselector.slot, align 4
  %lpad.val = insertvalue { ptr, i32 } poison, ptr %exn, 0
  %lpad.val2 = insertvalue { ptr, i32 } %lpad.val, i32 %sel, 1
  resume { ptr, i32 } %lpad.val2
}